# SymbolsHelper-Confirmed: 5.69.0 amd64
libKF5PeopleWidgets.so.5 libkf5peoplewidgets5 #MINVER#
* Build-Depends-Package: libkf5people-dev
 _ZN13MergeDelegate11pictureSizeEv@Base 5.69.0
 _ZN13MergeDelegate11qt_metacallEN11QMetaObject4CallEiPPv@Base 5.69.0
 _ZN13MergeDelegate11qt_metacastEPKc@Base 5.69.0
 _ZN13MergeDelegate11s_arrowSizeE@Base 5.69.0
 _ZN13MergeDelegate16s_decorationSizeE@Base 5.69.0
 _ZN13MergeDelegate16staticMetaObjectE@Base 5.69.0
 _ZN13MergeDelegate20onClickContactParentERK11QModelIndex@Base 5.69.0
 _ZN13MergeDelegate22buildMultipleLineLabelERK11QModelIndex@Base 5.69.0
 _ZN13MergeDelegate25onSelectedContactsChangedERK14QItemSelectionS2_@Base 5.69.0
 _ZN13MergeDelegateC1EP17QAbstractItemView@Base 5.69.0
 _ZN13MergeDelegateC2EP17QAbstractItemView@Base 5.69.0
 _ZN13MergeDelegateD0Ev@Base 5.69.0
 _ZN13MergeDelegateD1Ev@Base 5.69.0
 _ZN13MergeDelegateD2Ev@Base 5.69.0
 _ZN7KPeople11MergeDialog11qt_metacallEN11QMetaObject4CallEiPPv@Base 5.69.0
 _ZN7KPeople11MergeDialog11qt_metacastEPKc@Base 5.69.0
 _ZN7KPeople11MergeDialog15setPersonsModelEPNS_12PersonsModelE@Base 5.69.0
 _ZN7KPeople11MergeDialog16staticMetaObjectE@Base 5.69.0
 _ZN7KPeople11MergeDialog19searchForDuplicatesEv@Base 5.69.0
 _ZN7KPeople11MergeDialog20onMergeButtonClickedEv@Base 5.69.0
 _ZN7KPeople11MergeDialog25itemMergeContactFromMatchEbRKNS_5MatchE@Base 5.69.0
 _ZN7KPeople11MergeDialog27searchForDuplicatesFinishedEP4KJob@Base 5.69.0
 _ZN7KPeople11MergeDialog29feedDuplicateModelFromMatchesERK5QListINS_5MatchEE@Base 5.69.0
 _ZN7KPeople11MergeDialogC1EP7QWidget@Base 5.69.0
 _ZN7KPeople11MergeDialogC2EP7QWidget@Base 5.69.0
 _ZN7KPeople11MergeDialogD0Ev@Base 5.69.0
 _ZN7KPeople11MergeDialogD1Ev@Base 5.69.0
 _ZN7KPeople11MergeDialogD2Ev@Base 5.69.0
 _ZN7KPeople16actionsForPersonERK7QStringP7QObject@Base 5.69.0
 _ZN7KPeople17PersonDetailsView11qt_metacallEN11QMetaObject4CallEiPPv@Base 5.69.0
 _ZN7KPeople17PersonDetailsView11qt_metacastEPKc@Base 5.69.0
 _ZN7KPeople17PersonDetailsView16staticMetaObjectE@Base 5.69.0
 _ZN7KPeople17PersonDetailsView6reloadEv@Base 5.69.0
 _ZN7KPeople17PersonDetailsView9setPersonEPNS_10PersonDataE@Base 5.69.0
 _ZN7KPeople17PersonDetailsViewC1EP7QWidget@Base 5.69.0
 _ZN7KPeople17PersonDetailsViewC2EP7QWidget@Base 5.69.0
 _ZN7KPeople17PersonDetailsViewD0Ev@Base 5.69.0
 _ZN7KPeople17PersonDetailsViewD1Ev@Base 5.69.0
 _ZN7KPeople17PersonDetailsViewD2Ev@Base 5.69.0
 _ZN7KPeople19PersonDetailsDialog11qt_metacallEN11QMetaObject4CallEiPPv@Base 5.69.0
 _ZN7KPeople19PersonDetailsDialog11qt_metacastEPKc@Base 5.69.0
 _ZN7KPeople19PersonDetailsDialog16staticMetaObjectE@Base 5.69.0
 _ZN7KPeople19PersonDetailsDialog9setPersonEPNS_10PersonDataE@Base 5.69.0
 _ZN7KPeople19PersonDetailsDialogC1EP7QWidget6QFlagsIN2Qt10WindowTypeEE@Base 5.69.0
 _ZN7KPeople19PersonDetailsDialogC2EP7QWidget6QFlagsIN2Qt10WindowTypeEE@Base 5.69.0
 _ZN7KPeople19PersonDetailsDialogD0Ev@Base 5.69.0
 _ZN7KPeople19PersonDetailsDialogD1Ev@Base 5.69.0
 _ZN7KPeople19PersonDetailsDialogD2Ev@Base 5.69.0
 _ZN7KPeople26AbstractFieldWidgetFactory11qt_metacallEN11QMetaObject4CallEiPPv@Base 5.69.0
 _ZN7KPeople26AbstractFieldWidgetFactory11qt_metacastEPKc@Base 5.69.0
 _ZN7KPeople26AbstractFieldWidgetFactory16staticMetaObjectE@Base 5.69.0
 _ZN7KPeople26AbstractFieldWidgetFactoryC1EP7QObject@Base 5.69.0
 _ZN7KPeople26AbstractFieldWidgetFactoryC2EP7QObject@Base 5.69.0
 _ZN7KPeople26AbstractFieldWidgetFactoryD0Ev@Base 5.69.0
 _ZN7KPeople26AbstractFieldWidgetFactoryD1Ev@Base 5.69.0
 _ZN7KPeople26AbstractFieldWidgetFactoryD2Ev@Base 5.69.0
 _ZNK13MergeDelegate10metaObjectEv@Base 5.69.0
 _ZNK13MergeDelegate5paintEP8QPainterRK20QStyleOptionViewItemRK11QModelIndex@Base 5.69.0
 _ZNK7KPeople11MergeDialog10metaObjectEv@Base 5.69.0
 _ZNK7KPeople17PersonDetailsView10metaObjectEv@Base 5.69.0
 _ZNK7KPeople19PersonDetailsDialog10metaObjectEv@Base 5.69.0
 _ZNK7KPeople26AbstractFieldWidgetFactory10metaObjectEv@Base 5.69.0
 _ZTI13MergeDelegate@Base 5.69.0
 _ZTIN7KPeople11MergeDialogE@Base 5.69.0
 _ZTIN7KPeople17PersonDetailsViewE@Base 5.69.0
 _ZTIN7KPeople19PersonDetailsDialogE@Base 5.69.0
 _ZTIN7KPeople26AbstractFieldWidgetFactoryE@Base 5.69.0
 _ZTS13MergeDelegate@Base 5.69.0
 _ZTSN7KPeople11MergeDialogE@Base 5.69.0
 _ZTSN7KPeople17PersonDetailsViewE@Base 5.69.0
 _ZTSN7KPeople19PersonDetailsDialogE@Base 5.69.0
 _ZTSN7KPeople26AbstractFieldWidgetFactoryE@Base 5.69.0
 _ZTV13MergeDelegate@Base 5.69.0
 _ZTVN7KPeople11MergeDialogE@Base 5.69.0
 _ZTVN7KPeople17PersonDetailsViewE@Base 5.69.0
 _ZTVN7KPeople19PersonDetailsDialogE@Base 5.69.0
 _ZTVN7KPeople26AbstractFieldWidgetFactoryE@Base 5.69.0
 (c++)"non-virtual thunk to KPeople::MergeDialog::~MergeDialog()@Base" 5.69.0
 (c++)"non-virtual thunk to KPeople::PersonDetailsDialog::~PersonDetailsDialog()@Base" 5.69.0
 (c++)"non-virtual thunk to KPeople::PersonDetailsView::~PersonDetailsView()@Base" 5.69.0
