# SymbolsHelper-Confirmed: 5.69.0 amd64
libKF5PeopleBackend.so.5 libkf5peoplebackend5 #MINVER#
* Build-Depends-Package: libkf5people-dev
 _ZN21DefaultContactMonitor11qt_metacallEN11QMetaObject4CallEiPPv@Base 5.69.0
 _ZN21DefaultContactMonitor11qt_metacastEPKc@Base 5.69.0
 _ZN21DefaultContactMonitor14onContactAddedERK7QStringRK28QExplicitlySharedDataPointerIN7KPeople15AbstractContactEE@Base 5.69.0
 _ZN21DefaultContactMonitor16onContactChangedERK7QStringRK28QExplicitlySharedDataPointerIN7KPeople15AbstractContactEE@Base 5.69.0
 _ZN21DefaultContactMonitor16onContactRemovedERK7QString@Base 5.69.0
 _ZN21DefaultContactMonitor16staticMetaObjectE@Base 5.69.0
 _ZN21DefaultContactMonitorC1ERK7QStringRK14QSharedPointerIN7KPeople18AllContactsMonitorEE@Base 5.69.0
 _ZN21DefaultContactMonitorC2ERK7QStringRK14QSharedPointerIN7KPeople18AllContactsMonitorEE@Base 5.69.0
 _ZN7KPeople14ContactMonitor10setContactERK28QExplicitlySharedDataPointerINS_15AbstractContactEE@Base 5.69.0
 _ZN7KPeople14ContactMonitor11qt_metacallEN11QMetaObject4CallEiPPv@Base 5.69.0
 _ZN7KPeople14ContactMonitor11qt_metacastEPKc@Base 5.69.0
 _ZN7KPeople14ContactMonitor14contactChangedEv@Base 5.69.0
 _ZN7KPeople14ContactMonitor16staticMetaObjectE@Base 5.69.0
 _ZN7KPeople14ContactMonitorC1ERK7QString@Base 5.69.0
 _ZN7KPeople14ContactMonitorC2ERK7QString@Base 5.69.0
 _ZN7KPeople14ContactMonitorD0Ev@Base 5.69.0
 _ZN7KPeople14ContactMonitorD1Ev@Base 5.69.0
 _ZN7KPeople14ContactMonitorD2Ev@Base 5.69.0
 _ZN7KPeople15AbstractContact12NamePropertyE@Base 5.69.0
 _ZN7KPeople15AbstractContact13EmailPropertyE@Base 5.69.0
 _ZN7KPeople15AbstractContact13VCardPropertyE@Base 5.69.0
 _ZN7KPeople15AbstractContact14GroupsPropertyE@Base 5.69.0
 _ZN7KPeople15AbstractContact15PicturePropertyE@Base 5.69.0
 _ZN7KPeople15AbstractContact16PresencePropertyE@Base 5.69.0
 _ZN7KPeople15AbstractContact17AllEmailsPropertyE@Base 5.69.0
 _ZN7KPeople15AbstractContact19PhoneNumberPropertyE@Base 5.69.0
 _ZN7KPeople15AbstractContact23AllPhoneNumbersPropertyE@Base 5.69.0
 _ZN7KPeople15AbstractContactC1Ev@Base 5.69.0
 _ZN7KPeople15AbstractContactC2Ev@Base 5.69.0
 _ZN7KPeople15AbstractContactD0Ev@Base 5.69.0
 _ZN7KPeople15AbstractContactD1Ev@Base 5.69.0
 _ZN7KPeople15AbstractContactD2Ev@Base 5.69.0
 _ZN7KPeople18AllContactsMonitor11qt_metacallEN11QMetaObject4CallEiPPv@Base 5.69.0
 _ZN7KPeople18AllContactsMonitor11qt_metacastEPKc@Base 5.69.0
 _ZN7KPeople18AllContactsMonitor12contactAddedERK7QStringRK28QExplicitlySharedDataPointerINS_15AbstractContactEE@Base 5.69.0
 _ZN7KPeople18AllContactsMonitor14contactChangedERK7QStringRK28QExplicitlySharedDataPointerINS_15AbstractContactEE@Base 5.69.0
 _ZN7KPeople18AllContactsMonitor14contactRemovedERK7QString@Base 5.69.0
 _ZN7KPeople18AllContactsMonitor16staticMetaObjectE@Base 5.69.0
 _ZN7KPeople18AllContactsMonitor20initialFetchCompleteEb@Base 5.69.0
 _ZN7KPeople18AllContactsMonitor24emitInitialFetchCompleteEb@Base 5.69.0
 _ZN7KPeople18AllContactsMonitor8contactsEv@Base 5.69.0
 _ZN7KPeople18AllContactsMonitorC1Ev@Base 5.69.0
 _ZN7KPeople18AllContactsMonitorC2Ev@Base 5.69.0
 _ZN7KPeople18AllContactsMonitorD0Ev@Base 5.69.0
 _ZN7KPeople18AllContactsMonitorD1Ev@Base 5.69.0
 _ZN7KPeople18AllContactsMonitorD2Ev@Base 5.69.0
 _ZN7KPeople20AbstractPersonAction11qt_metacallEN11QMetaObject4CallEiPPv@Base 5.69.0
 _ZN7KPeople20AbstractPersonAction11qt_metacastEPKc@Base 5.69.0
 _ZN7KPeople20AbstractPersonAction16staticMetaObjectE@Base 5.69.0
 _ZN7KPeople20AbstractPersonActionC1EP7QObject@Base 5.69.0
 _ZN7KPeople20AbstractPersonActionC2EP7QObject@Base 5.69.0
 _ZN7KPeople21BasePersonsDataSource11qt_metacallEN11QMetaObject4CallEiPPv@Base 5.69.0
 _ZN7KPeople21BasePersonsDataSource11qt_metacastEPKc@Base 5.69.0
 _ZN7KPeople21BasePersonsDataSource14contactMonitorERK7QString@Base 5.69.0
 _ZN7KPeople21BasePersonsDataSource16staticMetaObjectE@Base 5.69.0
 _ZN7KPeople21BasePersonsDataSource18allContactsMonitorEv@Base 5.69.0
 _ZN7KPeople21BasePersonsDataSource20createContactMonitorERK7QString@Base 5.69.0
 _ZN7KPeople21BasePersonsDataSourceC1EP7QObjectRK5QListI8QVariantE@Base 5.69.0
 _ZN7KPeople21BasePersonsDataSourceC2EP7QObjectRK5QListI8QVariantE@Base 5.69.0
 _ZN7KPeople21BasePersonsDataSourceD0Ev@Base 5.69.0
 _ZN7KPeople21BasePersonsDataSourceD1Ev@Base 5.69.0
 _ZN7KPeople21BasePersonsDataSourceD2Ev@Base 5.69.0
 _ZN7KPeople23AbstractEditableContactC1Ev@Base 5.69.0
 _ZN7KPeople23AbstractEditableContactC2Ev@Base 5.69.0
 _ZN7KPeople23AbstractEditableContactD0Ev@Base 5.69.0
 _ZN7KPeople23AbstractEditableContactD1Ev@Base 5.69.0
 _ZN7KPeople23AbstractEditableContactD2Ev@Base 5.69.0
 _ZN7KPeople23BasePersonsDataSourceV211qt_metacallEN11QMetaObject4CallEiPPv@Base 5.69.0
 _ZN7KPeople23BasePersonsDataSourceV211qt_metacastEPKc@Base 5.69.0
 _ZN7KPeople23BasePersonsDataSourceV216staticMetaObjectE@Base 5.69.0
 _ZN7KPeople23BasePersonsDataSourceV2C1EP7QObjectRK5QListI8QVariantE@Base 5.69.0
 _ZN7KPeople23BasePersonsDataSourceV2C2EP7QObjectRK5QListI8QVariantE@Base 5.69.0
 _ZNK21DefaultContactMonitor10metaObjectEv@Base 5.69.0
 _ZNK7KPeople14ContactMonitor10contactUriEv@Base 5.69.0
 _ZNK7KPeople14ContactMonitor10metaObjectEv@Base 5.69.0
 _ZNK7KPeople14ContactMonitor7contactEv@Base 5.69.0
 _ZNK7KPeople18AllContactsMonitor10metaObjectEv@Base 5.69.0
 _ZNK7KPeople18AllContactsMonitor19initialFetchSuccessEv@Base 5.69.0
 _ZNK7KPeople18AllContactsMonitor22isInitialFetchCompleteEv@Base 5.69.0
 _ZNK7KPeople20AbstractPersonAction10metaObjectEv@Base 5.69.0
 _ZNK7KPeople21BasePersonsDataSource10metaObjectEv@Base 5.69.0
 _ZNK7KPeople23BasePersonsDataSourceV210metaObjectEv@Base 5.69.0
 _ZTI11QSharedData@Base 5.69.0
 _ZTI21DefaultContactMonitor@Base 5.69.0
 _ZTIN7KPeople14ContactMonitorE@Base 5.69.0
 _ZTIN7KPeople15AbstractContactE@Base 5.69.0
 _ZTIN7KPeople18AllContactsMonitorE@Base 5.69.0
 _ZTIN7KPeople20AbstractPersonActionE@Base 5.69.0
 _ZTIN7KPeople21BasePersonsDataSourceE@Base 5.69.0
 _ZTIN7KPeople23AbstractEditableContactE@Base 5.69.0
 _ZTIN7KPeople23BasePersonsDataSourceV2E@Base 5.69.0
 _ZTS11QSharedData@Base 5.69.0
 _ZTS21DefaultContactMonitor@Base 5.69.0
 _ZTSN7KPeople14ContactMonitorE@Base 5.69.0
 _ZTSN7KPeople15AbstractContactE@Base 5.69.0
 _ZTSN7KPeople18AllContactsMonitorE@Base 5.69.0
 _ZTSN7KPeople20AbstractPersonActionE@Base 5.69.0
 _ZTSN7KPeople21BasePersonsDataSourceE@Base 5.69.0
 _ZTSN7KPeople23AbstractEditableContactE@Base 5.69.0
 _ZTSN7KPeople23BasePersonsDataSourceV2E@Base 5.69.0
 _ZTV21DefaultContactMonitor@Base 5.69.0
 _ZTVN7KPeople14ContactMonitorE@Base 5.69.0
 _ZTVN7KPeople15AbstractContactE@Base 5.69.0
 _ZTVN7KPeople18AllContactsMonitorE@Base 5.69.0
 _ZTVN7KPeople20AbstractPersonActionE@Base 5.69.0
 _ZTVN7KPeople21BasePersonsDataSourceE@Base 5.69.0
 _ZTVN7KPeople23AbstractEditableContactE@Base 5.69.0
 _ZTVN7KPeople23BasePersonsDataSourceV2E@Base 5.69.0
